target datalayout = "e-m:e-p270:32:32-p271:32:32-p272:64:64-i64:64-i128:128-f80:128-n8:16:32:64-S128"
target triple = "x86_64-unknown-linux-gnu"

%"class.OpenImageIO_v2_6_0::(anonymous namespace)::XMPtagMap" = type { %"class.boost::container::flat_map" }
%"class.boost::container::flat_map" = type { %"class.boost::container::dtl::flat_tree" }
%"class.boost::container::dtl::flat_tree" = type { %"struct.boost::container::dtl::flat_tree<boost::container::dtl::pair<std::__cxx11::basic_string<char>, const OpenImageIO_v2_6_0::(anonymous namespace)::XMPtag *>, boost::container::dtl::select1st<std::__cxx11::basic_string<char>>, std::less<std::__cxx11::basic_string<char>>, boost::container::new_allocator<boost::container::dtl::pair<std::__cxx11::basic_string<char>, const OpenImageIO_v2_6_0::(anonymous namespace)::XMPtag *>>>::Data" }
%"struct.boost::container::dtl::flat_tree<boost::container::dtl::pair<std::__cxx11::basic_string<char>, const OpenImageIO_v2_6_0::(anonymous namespace)::XMPtag *>, boost::container::dtl::select1st<std::__cxx11::basic_string<char>>, std::less<std::__cxx11::basic_string<char>>, boost::container::new_allocator<boost::container::dtl::pair<std::__cxx11::basic_string<char>, const OpenImageIO_v2_6_0::(anonymous namespace)::XMPtag *>>>::Data" = type { %"class.boost::container::vector" }
%"class.boost::container::vector" = type { %"struct.boost::container::vector_alloc_holder" }
%"struct.boost::container::vector_alloc_holder" = type { ptr, i64, i64 }
%"class.std::__cxx11::basic_string" = type { %"struct.std::__cxx11::basic_string<char>::_Alloc_hider", i64, %union.anon.3 }
%"struct.std::__cxx11::basic_string<char>::_Alloc_hider" = type { ptr }
%union.anon.3 = type { i64, [8 x i8] }
%"struct.boost::container::dtl::pair" = type { %"class.std::__cxx11::basic_string", ptr }

; Function Attrs: mustprogress nounwind uwtable
define internal void @_ZN5boost9container13new_allocatorINS0_3dtl4pairINSt7__cxx1112basic_stringIcSt11char_traitsIcESaIcEEEPKN18OpenImageIO_v2_6_012_GLOBAL__N_16XMPtagEEEE10deallocateEPSF_m(ptr noundef nonnull align 1 dereferenceable(1) %this, ptr noundef %ptr, i64 noundef %0) #4 align 2 {
entry:
  %this.addr = alloca ptr, align 8
  %ptr.addr = alloca ptr, align 8
  %.addr = alloca i64, align 8
  store ptr %this, ptr %this.addr, align 8
  store ptr %ptr, ptr %ptr.addr, align 8
  store i64 %0, ptr %.addr, align 8
  %1 = load ptr, ptr %ptr.addr, align 8
  call void @_ZdlPv(ptr noundef %1) #3
  ret void
}

; Function Attrs: mustprogress nounwind uwtable
define internal void @_ZN5boost9container3dtl4pairINSt7__cxx1112basic_stringIcSt11char_traitsIcESaIcEEEPKN18OpenImageIO_v2_6_012_GLOBAL__N_16XMPtagEED2Ev(ptr noundef nonnull align 8 dereferenceable(40) %this) unnamed_addr #4 align 2 {
entry:
  %this.addr = alloca ptr, align 8
  store ptr %this, ptr %this.addr, align 8
  %this1 = load ptr, ptr %this.addr, align 8
  %first = getelementptr inbounds %"struct.boost::container::dtl::pair", ptr %this1, i32 0, i32 0
  call void @_ZNSt7__cxx1112basic_stringIcSt11char_traitsIcESaIcEED1Ev(ptr noundef nonnull align 8 dereferenceable(32) %first) #3
  ret void
}

; Function Attrs: mustprogress nounwind uwtable
define internal void @_ZN5boost9container16allocator_traitsINS0_13new_allocatorINS0_3dtl4pairINSt7__cxx1112basic_stringIcSt11char_traitsIcESaIcEEEPKN18OpenImageIO_v2_6_012_GLOBAL__N_16XMPtagEEEEEE10deallocateERSH_PSG_m(ptr noundef nonnull align 1 dereferenceable(1) %a, ptr noundef %p, i64 noundef %n) #4 align 2 {
entry:
  %a.addr = alloca ptr, align 8
  %p.addr = alloca ptr, align 8
  %n.addr = alloca i64, align 8
  store ptr %a, ptr %a.addr, align 8
  store ptr %p, ptr %p.addr, align 8
  store i64 %n, ptr %n.addr, align 8
  %0 = load ptr, ptr %a.addr, align 8
  %1 = load ptr, ptr %p.addr, align 8
  %2 = load i64, ptr %n.addr, align 8
  call void @_ZN5boost9container13new_allocatorINS0_3dtl4pairINSt7__cxx1112basic_stringIcSt11char_traitsIcESaIcEEEPKN18OpenImageIO_v2_6_012_GLOBAL__N_16XMPtagEEEE10deallocateEPSF_m(ptr noundef nonnull align 1 dereferenceable(1) %0, ptr noundef %1, i64 noundef %2) #3
  ret void
}

; Function Attrs: mustprogress nounwind uwtable
define internal void @_ZN5boost9container16allocator_traitsINS0_13new_allocatorINS0_3dtl4pairINSt7__cxx1112basic_stringIcSt11char_traitsIcESaIcEEEPKN18OpenImageIO_v2_6_012_GLOBAL__N_16XMPtagEEEEEE12priv_destroyISG_EEvNS_11move_detail17integral_constantIbLb0EEERSH_PT_(ptr noundef nonnull align 1 dereferenceable(1) %0, ptr noundef %p) #4 align 2 {
entry:
  %.addr = alloca ptr, align 8
  %p.addr = alloca ptr, align 8
  store ptr %0, ptr %.addr, align 8
  store ptr %p, ptr %p.addr, align 8
  %1 = load ptr, ptr %p.addr, align 8
  call void @_ZN5boost9container3dtl4pairINSt7__cxx1112basic_stringIcSt11char_traitsIcESaIcEEEPKN18OpenImageIO_v2_6_012_GLOBAL__N_16XMPtagEED2Ev(ptr noundef nonnull align 8 dereferenceable(40) %1) #3
  ret void
}

; Function Attrs: mustprogress nounwind uwtable
define internal noundef ptr @_ZN5boost7movelib6detail19iterator_to_pointerINS_9container3dtl4pairINSt7__cxx1112basic_stringIcSt11char_traitsIcESaIcEEEPKN18OpenImageIO_v2_6_012_GLOBAL__N_16XMPtagEEEEEPT_SJ_(ptr noundef %i) #4 {
entry:
  %i.addr = alloca ptr, align 8
  store ptr %i, ptr %i.addr, align 8
  %0 = load ptr, ptr %i.addr, align 8
  ret ptr %0
}

; Function Attrs: mustprogress uwtable
define internal void @_ZN5boost9container19vector_alloc_holderINS0_13new_allocatorINS0_3dtl4pairINSt7__cxx1112basic_stringIcSt11char_traitsIcESaIcEEEPKN18OpenImageIO_v2_6_012_GLOBAL__N_16XMPtagEEEEEmNS_11move_detail17integral_constantIjLj1EEEE10deallocateERKPSG_m(ptr noundef nonnull align 8 dereferenceable(24) %this, ptr noundef nonnull align 8 dereferenceable(8) %p, i64 noundef %n) #6 align 2 {
entry:
  %this.addr = alloca ptr, align 8
  %p.addr = alloca ptr, align 8
  %n.addr = alloca i64, align 8
  store ptr %this, ptr %this.addr, align 8
  store ptr %p, ptr %p.addr, align 8
  store i64 %n, ptr %n.addr, align 8
  %this1 = load ptr, ptr %this.addr, align 8
  %call = call noundef nonnull align 1 dereferenceable(1) ptr @_ZN5boost9container19vector_alloc_holderINS0_13new_allocatorINS0_3dtl4pairINSt7__cxx1112basic_stringIcSt11char_traitsIcESaIcEEEPKN18OpenImageIO_v2_6_012_GLOBAL__N_16XMPtagEEEEEmNS_11move_detail17integral_constantIjLj1EEEE5allocEv(ptr noundef nonnull align 8 dereferenceable(24) %this1) #3
  %0 = load ptr, ptr %p.addr, align 8
  %1 = load ptr, ptr %0, align 8
  %2 = load i64, ptr %n.addr, align 8
  call void @_ZN5boost9container16allocator_traitsINS0_13new_allocatorINS0_3dtl4pairINSt7__cxx1112basic_stringIcSt11char_traitsIcESaIcEEEPKN18OpenImageIO_v2_6_012_GLOBAL__N_16XMPtagEEEEEE10deallocateERSH_PSG_m(ptr noundef nonnull align 1 dereferenceable(1) %call, ptr noundef %1, i64 noundef %2)
  ret void
}

; Function Attrs: mustprogress nounwind uwtable
define internal void @_ZN5boost9container16allocator_traitsINS0_13new_allocatorINS0_3dtl4pairINSt7__cxx1112basic_stringIcSt11char_traitsIcESaIcEEEPKN18OpenImageIO_v2_6_012_GLOBAL__N_16XMPtagEEEEEE7destroyISG_EEvRSH_PT_(ptr noundef nonnull align 1 dereferenceable(1) %a, ptr noundef %p) #4 align 2 {
entry:
  %a.addr = alloca ptr, align 8
  %p.addr = alloca ptr, align 8
  %value = alloca i8, align 1
  store ptr %a, ptr %a.addr, align 8
  store ptr %p, ptr %p.addr, align 8
  store i8 0, ptr %value, align 1
  %0 = load ptr, ptr %a.addr, align 8
  %1 = load ptr, ptr %p.addr, align 8
  call void @_ZN5boost9container16allocator_traitsINS0_13new_allocatorINS0_3dtl4pairINSt7__cxx1112basic_stringIcSt11char_traitsIcESaIcEEEPKN18OpenImageIO_v2_6_012_GLOBAL__N_16XMPtagEEEEEE12priv_destroyISG_EEvNS_11move_detail17integral_constantIbLb0EEERSH_PT_(ptr noundef nonnull align 1 dereferenceable(1) %0, ptr noundef %1) #3
  ret void
}

; Function Attrs: mustprogress uwtable
define internal noundef ptr @_ZN5boost7movelib23iterator_to_raw_pointerIPNS_9container3dtl4pairINSt7__cxx1112basic_stringIcSt11char_traitsIcESaIcEEEPKN18OpenImageIO_v2_6_012_GLOBAL__N_16XMPtagEEEEENS0_6detail23iterator_to_element_ptrIT_E4typeERKSK_(ptr noundef nonnull align 8 dereferenceable(8) %i) #6 {
entry:
  %i.addr = alloca ptr, align 8
  store ptr %i, ptr %i.addr, align 8
  %0 = load ptr, ptr %i.addr, align 8
  %1 = load ptr, ptr %0, align 8
  %call = call noundef ptr @_ZN5boost7movelib6detail19iterator_to_pointerINS_9container3dtl4pairINSt7__cxx1112basic_stringIcSt11char_traitsIcESaIcEEEPKN18OpenImageIO_v2_6_012_GLOBAL__N_16XMPtagEEEEEPT_SJ_(ptr noundef %1)
  %call1 = call noundef ptr @_ZN5boost7movelib14to_raw_pointerINS_9container3dtl4pairINSt7__cxx1112basic_stringIcSt11char_traitsIcESaIcEEEPKN18OpenImageIO_v2_6_012_GLOBAL__N_16XMPtagEEEEEPT_SI_(ptr noundef %call)
  ret ptr %call1
}

; Function Attrs: mustprogress nounwind uwtable
define internal noundef ptr @_ZN5boost7movelib14to_raw_pointerINS_9container3dtl4pairINSt7__cxx1112basic_stringIcSt11char_traitsIcESaIcEEEPKN18OpenImageIO_v2_6_012_GLOBAL__N_16XMPtagEEEEEPT_SI_(ptr noundef %p) #4 {
entry:
  %p.addr = alloca ptr, align 8
  store ptr %p, ptr %p.addr, align 8
  %0 = load ptr, ptr %p.addr, align 8
  ret ptr %0
}

; Function Attrs: mustprogress nounwind uwtable
define internal noundef nonnull align 8 dereferenceable(8) ptr @_ZNK5boost9container19vector_alloc_holderINS0_13new_allocatorINS0_3dtl4pairINSt7__cxx1112basic_stringIcSt11char_traitsIcESaIcEEEPKN18OpenImageIO_v2_6_012_GLOBAL__N_16XMPtagEEEEEmNS_11move_detail17integral_constantIjLj1EEEE5startEv(ptr noundef nonnull align 8 dereferenceable(24) %this) #4 align 2 {
entry:
  %this.addr = alloca ptr, align 8
  store ptr %this, ptr %this.addr, align 8
  %this1 = load ptr, ptr %this.addr, align 8
  %m_start = getelementptr inbounds %"struct.boost::container::vector_alloc_holder", ptr %this1, i32 0, i32 0
  ret ptr %m_start
}

; Function Attrs: mustprogress nounwind uwtable
define internal noundef nonnull align 1 dereferenceable(1) ptr @_ZN5boost9container19vector_alloc_holderINS0_13new_allocatorINS0_3dtl4pairINSt7__cxx1112basic_stringIcSt11char_traitsIcESaIcEEEPKN18OpenImageIO_v2_6_012_GLOBAL__N_16XMPtagEEEEEmNS_11move_detail17integral_constantIjLj1EEEE5allocEv(ptr noundef nonnull align 8 dereferenceable(24) %this) #4 align 2 {
entry:
  %this.addr = alloca ptr, align 8
  store ptr %this, ptr %this.addr, align 8
  %this1 = load ptr, ptr %this.addr, align 8
  ret ptr %this1
}

; Function Attrs: noreturn nounwind uwtable
define linkonce_odr hidden void @__clang_call_terminate(ptr noundef %0) #8 comdat {
  %2 = call ptr @__cxa_begin_catch(ptr %0) #3
  call void @_ZSt9terminatev() #19
  unreachable
}

; Function Attrs: mustprogress nounwind uwtable
define internal void @_ZN5boost9container19vector_alloc_holderINS0_13new_allocatorINS0_3dtl4pairINSt7__cxx1112basic_stringIcSt11char_traitsIcESaIcEEEPKN18OpenImageIO_v2_6_012_GLOBAL__N_16XMPtagEEEEEmNS_11move_detail17integral_constantIjLj1EEEED2Ev(ptr noundef nonnull align 8 dereferenceable(24) %this) unnamed_addr #4 align 2 personality ptr @__gxx_personality_v0 {
entry:
  %this.addr = alloca ptr, align 8
  store ptr %this, ptr %this.addr, align 8
  %this1 = load ptr, ptr %this.addr, align 8
  %m_capacity = getelementptr inbounds %"struct.boost::container::vector_alloc_holder", ptr %this1, i32 0, i32 2
  %0 = load i64, ptr %m_capacity, align 8
  %tobool = icmp ne i64 %0, 0
  br i1 %tobool, label %if.then, label %if.end

if.then:                                          ; preds = %entry
  %m_start = getelementptr inbounds %"struct.boost::container::vector_alloc_holder", ptr %this1, i32 0, i32 0
  %m_capacity2 = getelementptr inbounds %"struct.boost::container::vector_alloc_holder", ptr %this1, i32 0, i32 2
  %1 = load i64, ptr %m_capacity2, align 8
  invoke void @_ZN5boost9container19vector_alloc_holderINS0_13new_allocatorINS0_3dtl4pairINSt7__cxx1112basic_stringIcSt11char_traitsIcESaIcEEEPKN18OpenImageIO_v2_6_012_GLOBAL__N_16XMPtagEEEEEmNS_11move_detail17integral_constantIjLj1EEEE10deallocateERKPSG_m(ptr noundef nonnull align 8 dereferenceable(24) %this1, ptr noundef nonnull align 8 dereferenceable(8) %m_start, i64 noundef %1)
          to label %invoke.cont unwind label %terminate.lpad

invoke.cont:                                      ; preds = %if.then
  br label %if.end

if.end:                                           ; preds = %invoke.cont, %entry
  ret void

terminate.lpad:                                   ; preds = %if.then
  %2 = landingpad { ptr, i32 }
          catch ptr null
  %3 = extractvalue { ptr, i32 } %2, 0
  call void @__clang_call_terminate(ptr %3) #19
  unreachable
}

; Function Attrs: mustprogress uwtable
define internal void @_ZN5boost9container15destroy_alloc_nINS0_13new_allocatorINS0_3dtl4pairINSt7__cxx1112basic_stringIcSt11char_traitsIcESaIcEEEPKN18OpenImageIO_v2_6_012_GLOBAL__N_16XMPtagEEEEEPSG_mEENS3_33disable_if_trivially_destructibleIT0_vE4typeERT_SK_T1_(ptr noundef nonnull align 1 dereferenceable(1) %a, ptr noundef %f, i64 noundef %n) #6 {
entry:
  %a.addr = alloca ptr, align 8
  %f.addr = alloca ptr, align 8
  %n.addr = alloca i64, align 8
  store ptr %a, ptr %a.addr, align 8
  store ptr %f, ptr %f.addr, align 8
  store i64 %n, ptr %n.addr, align 8
  br label %while.cond

while.cond:                                       ; preds = %while.body, %entry
  %0 = load i64, ptr %n.addr, align 8
  %tobool = icmp ne i64 %0, 0
  br i1 %tobool, label %while.body, label %while.end

while.body:                                       ; preds = %while.cond
  %1 = load i64, ptr %n.addr, align 8
  %dec = add i64 %1, -1
  store i64 %dec, ptr %n.addr, align 8
  %2 = load ptr, ptr %a.addr, align 8
  %call = call noundef ptr @_ZN5boost7movelib23iterator_to_raw_pointerIPNS_9container3dtl4pairINSt7__cxx1112basic_stringIcSt11char_traitsIcESaIcEEEPKN18OpenImageIO_v2_6_012_GLOBAL__N_16XMPtagEEEEENS0_6detail23iterator_to_element_ptrIT_E4typeERKSK_(ptr noundef nonnull align 8 dereferenceable(8) %f.addr)
  call void @_ZN5boost9container16allocator_traitsINS0_13new_allocatorINS0_3dtl4pairINSt7__cxx1112basic_stringIcSt11char_traitsIcESaIcEEEPKN18OpenImageIO_v2_6_012_GLOBAL__N_16XMPtagEEEEEE7destroyISG_EEvRSH_PT_(ptr noundef nonnull align 1 dereferenceable(1) %2, ptr noundef %call) #3
  %3 = load ptr, ptr %f.addr, align 8
  %incdec.ptr = getelementptr inbounds %"struct.boost::container::dtl::pair", ptr %3, i32 1
  store ptr %incdec.ptr, ptr %f.addr, align 8
  br label %while.cond, !llvm.loop !115

while.end:                                        ; preds = %while.cond
  ret void
}

; Function Attrs: mustprogress nounwind uwtable
define internal noundef ptr @_ZNK5boost9container6vectorINS0_3dtl4pairINSt7__cxx1112basic_stringIcSt11char_traitsIcESaIcEEEPKN18OpenImageIO_v2_6_012_GLOBAL__N_16XMPtagEEENS0_13new_allocatorISF_EEvE14priv_raw_beginEv(ptr noundef nonnull align 8 dereferenceable(24) %this) #4 align 2 {
entry:
  %this.addr = alloca ptr, align 8
  store ptr %this, ptr %this.addr, align 8
  %this1 = load ptr, ptr %this.addr, align 8
  %m_holder = getelementptr inbounds %"class.boost::container::vector", ptr %this1, i32 0, i32 0
  %call = call noundef nonnull align 8 dereferenceable(8) ptr @_ZNK5boost9container19vector_alloc_holderINS0_13new_allocatorINS0_3dtl4pairINSt7__cxx1112basic_stringIcSt11char_traitsIcESaIcEEEPKN18OpenImageIO_v2_6_012_GLOBAL__N_16XMPtagEEEEEmNS_11move_detail17integral_constantIjLj1EEEE5startEv(ptr noundef nonnull align 8 dereferenceable(24) %m_holder) #3
  %0 = load ptr, ptr %call, align 8
  %call2 = call noundef ptr @_ZN5boost7movelib14to_raw_pointerINS_9container3dtl4pairINSt7__cxx1112basic_stringIcSt11char_traitsIcESaIcEEEPKN18OpenImageIO_v2_6_012_GLOBAL__N_16XMPtagEEEEEPT_SI_(ptr noundef %0)
  ret ptr %call2
}

; Function Attrs: mustprogress nounwind uwtable
define internal noundef nonnull align 1 dereferenceable(1) ptr @_ZN5boost9container6vectorINS0_3dtl4pairINSt7__cxx1112basic_stringIcSt11char_traitsIcESaIcEEEPKN18OpenImageIO_v2_6_012_GLOBAL__N_16XMPtagEEENS0_13new_allocatorISF_EEvE20get_stored_allocatorEv(ptr noundef nonnull align 8 dereferenceable(24) %this) #4 align 2 {
entry:
  %this.addr = alloca ptr, align 8
  store ptr %this, ptr %this.addr, align 8
  %this1 = load ptr, ptr %this.addr, align 8
  %m_holder = getelementptr inbounds %"class.boost::container::vector", ptr %this1, i32 0, i32 0
  %call = call noundef nonnull align 1 dereferenceable(1) ptr @_ZN5boost9container19vector_alloc_holderINS0_13new_allocatorINS0_3dtl4pairINSt7__cxx1112basic_stringIcSt11char_traitsIcESaIcEEEPKN18OpenImageIO_v2_6_012_GLOBAL__N_16XMPtagEEEEEmNS_11move_detail17integral_constantIjLj1EEEE5allocEv(ptr noundef nonnull align 8 dereferenceable(24) %m_holder) #3
  ret ptr %call
}

; Function Attrs: mustprogress nounwind uwtable
define internal void @_ZN5boost9container6vectorINS0_3dtl4pairINSt7__cxx1112basic_stringIcSt11char_traitsIcESaIcEEEPKN18OpenImageIO_v2_6_012_GLOBAL__N_16XMPtagEEENS0_13new_allocatorISF_EEvED2Ev(ptr noundef nonnull align 8 dereferenceable(24) %this) unnamed_addr #4 align 2 personality ptr @__gxx_personality_v0 {
entry:
  %this.addr = alloca ptr, align 8
  store ptr %this, ptr %this.addr, align 8
  %this1 = load ptr, ptr %this.addr, align 8
  %call = call noundef nonnull align 1 dereferenceable(1) ptr @_ZN5boost9container6vectorINS0_3dtl4pairINSt7__cxx1112basic_stringIcSt11char_traitsIcESaIcEEEPKN18OpenImageIO_v2_6_012_GLOBAL__N_16XMPtagEEENS0_13new_allocatorISF_EEvE20get_stored_allocatorEv(ptr noundef nonnull align 8 dereferenceable(24) %this1) #3
  %call2 = call noundef ptr @_ZNK5boost9container6vectorINS0_3dtl4pairINSt7__cxx1112basic_stringIcSt11char_traitsIcESaIcEEEPKN18OpenImageIO_v2_6_012_GLOBAL__N_16XMPtagEEENS0_13new_allocatorISF_EEvE14priv_raw_beginEv(ptr noundef nonnull align 8 dereferenceable(24) %this1)
  %m_holder = getelementptr inbounds %"class.boost::container::vector", ptr %this1, i32 0, i32 0
  %m_size = getelementptr inbounds %"struct.boost::container::vector_alloc_holder", ptr %m_holder, i32 0, i32 1
  %0 = load i64, ptr %m_size, align 8
  invoke void @_ZN5boost9container15destroy_alloc_nINS0_13new_allocatorINS0_3dtl4pairINSt7__cxx1112basic_stringIcSt11char_traitsIcESaIcEEEPKN18OpenImageIO_v2_6_012_GLOBAL__N_16XMPtagEEEEEPSG_mEENS3_33disable_if_trivially_destructibleIT0_vE4typeERT_SK_T1_(ptr noundef nonnull align 1 dereferenceable(1) %call, ptr noundef %call2, i64 noundef %0)
          to label %invoke.cont unwind label %terminate.lpad

invoke.cont:                                      ; preds = %entry
  %m_holder3 = getelementptr inbounds %"class.boost::container::vector", ptr %this1, i32 0, i32 0
  call void @_ZN5boost9container19vector_alloc_holderINS0_13new_allocatorINS0_3dtl4pairINSt7__cxx1112basic_stringIcSt11char_traitsIcESaIcEEEPKN18OpenImageIO_v2_6_012_GLOBAL__N_16XMPtagEEEEEmNS_11move_detail17integral_constantIjLj1EEEED2Ev(ptr noundef nonnull align 8 dereferenceable(24) %m_holder3) #3
  ret void

terminate.lpad:                                   ; preds = %entry
  %1 = landingpad { ptr, i32 }
          catch ptr null
  %2 = extractvalue { ptr, i32 } %1, 0
  call void @__clang_call_terminate(ptr %2) #19
  unreachable
}

; Function Attrs: mustprogress nounwind uwtable
define internal void @_ZN5boost9container3dtl9flat_treeINS1_4pairINSt7__cxx1112basic_stringIcSt11char_traitsIcESaIcEEEPKN18OpenImageIO_v2_6_012_GLOBAL__N_16XMPtagEEENS1_9select1stIS9_EESt4lessIS9_ENS0_13new_allocatorISF_EEE4DataD2Ev(ptr noundef nonnull align 8 dereferenceable(24) %this) unnamed_addr #4 align 2 {
entry:
  %this.addr = alloca ptr, align 8
  store ptr %this, ptr %this.addr, align 8
  %this1 = load ptr, ptr %this.addr, align 8
  %m_seq = getelementptr inbounds %"struct.boost::container::dtl::flat_tree<boost::container::dtl::pair<std::__cxx11::basic_string<char>, const OpenImageIO_v2_6_0::(anonymous namespace)::XMPtag *>, boost::container::dtl::select1st<std::__cxx11::basic_string<char>>, std::less<std::__cxx11::basic_string<char>>, boost::container::new_allocator<boost::container::dtl::pair<std::__cxx11::basic_string<char>, const OpenImageIO_v2_6_0::(anonymous namespace)::XMPtag *>>>::Data", ptr %this1, i32 0, i32 0
  call void @_ZN5boost9container6vectorINS0_3dtl4pairINSt7__cxx1112basic_stringIcSt11char_traitsIcESaIcEEEPKN18OpenImageIO_v2_6_012_GLOBAL__N_16XMPtagEEENS0_13new_allocatorISF_EEvED2Ev(ptr noundef nonnull align 8 dereferenceable(24) %m_seq) #3
  ret void
}

; Function Attrs: mustprogress nounwind uwtable
define internal void @_ZN5boost9container3dtl9flat_treeINS1_4pairINSt7__cxx1112basic_stringIcSt11char_traitsIcESaIcEEEPKN18OpenImageIO_v2_6_012_GLOBAL__N_16XMPtagEEENS1_9select1stIS9_EESt4lessIS9_ENS0_13new_allocatorISF_EEED2Ev(ptr noundef nonnull align 8 dereferenceable(24) %this) unnamed_addr #4 align 2 {
entry:
  %this.addr = alloca ptr, align 8
  store ptr %this, ptr %this.addr, align 8
  %this1 = load ptr, ptr %this.addr, align 8
  %m_data = getelementptr inbounds %"class.boost::container::dtl::flat_tree", ptr %this1, i32 0, i32 0
  call void @_ZN5boost9container3dtl9flat_treeINS1_4pairINSt7__cxx1112basic_stringIcSt11char_traitsIcESaIcEEEPKN18OpenImageIO_v2_6_012_GLOBAL__N_16XMPtagEEENS1_9select1stIS9_EESt4lessIS9_ENS0_13new_allocatorISF_EEE4DataD2Ev(ptr noundef nonnull align 8 dereferenceable(24) %m_data) #3
  ret void
}

; Function Attrs: mustprogress nounwind uwtable
define internal void @_ZN5boost9container8flat_mapINSt7__cxx1112basic_stringIcSt11char_traitsIcESaIcEEEPKN18OpenImageIO_v2_6_012_GLOBAL__N_16XMPtagESt4lessIS7_EvED2Ev(ptr noundef nonnull align 8 dereferenceable(24) %this) unnamed_addr #4 align 2 {
entry:
  %this.addr = alloca ptr, align 8
  store ptr %this, ptr %this.addr, align 8
  %this1 = load ptr, ptr %this.addr, align 8
  %m_flat_tree = getelementptr inbounds %"class.boost::container::flat_map", ptr %this1, i32 0, i32 0
  call void @_ZN5boost9container3dtl9flat_treeINS1_4pairINSt7__cxx1112basic_stringIcSt11char_traitsIcESaIcEEEPKN18OpenImageIO_v2_6_012_GLOBAL__N_16XMPtagEEENS1_9select1stIS9_EESt4lessIS9_ENS0_13new_allocatorISF_EEED2Ev(ptr noundef nonnull align 8 dereferenceable(24) %m_flat_tree) #3
  ret void
}

; Function Attrs: mustprogress nounwind uwtable
define internal void @_ZN18OpenImageIO_v2_6_012_GLOBAL__N_19XMPtagMapD2Ev(ptr noundef nonnull align 8 dereferenceable(24) %this) unnamed_addr #4 align 2 {
entry:
  %this.addr = alloca ptr, align 8
  store ptr %this, ptr %this.addr, align 8
  %this1 = load ptr, ptr %this.addr, align 8
  %m_tagmap = getelementptr inbounds %"class.OpenImageIO_v2_6_0::(anonymous namespace)::XMPtagMap", ptr %this1, i32 0, i32 0
  call void @_ZN5boost9container8flat_mapINSt7__cxx1112basic_stringIcSt11char_traitsIcESaIcEEEPKN18OpenImageIO_v2_6_012_GLOBAL__N_16XMPtagESt4lessIS7_EvED2Ev(ptr noundef nonnull align 8 dereferenceable(24) %m_tagmap) #3
  ret void
}