; Function Attrs: mustprogress nounwind uwtable
define internal void @_ZN18OpenImageIO_v2_6_012_GLOBAL__N_19XMPtagMapD2Ev(ptr nocapture noundef nonnull readonly align 8 dereferenceable(24) %this) unnamed_addr #3 align 2 personality ptr @__gxx_personality_v0 {
entry:
  %m_size.i.i.i.i = getelementptr inbounds i8, ptr %this, i64 8
  %0 = load i64, ptr %m_size.i.i.i.i, align 8
  %tobool.not1.i.i.i.i.i = icmp eq i64 %0, 0
  br i1 %tobool.not1.i.i.i.i.i, label %invoke.cont.i.i.i.i, label %while.body.i.preheader.i.i.i.i

while.body.i.preheader.i.i.i.i:                   ; preds = %entry
  %this.val.i.i.i.i = load ptr, ptr %this, align 8
  br label %while.body.i.i.i.i.i

while.body.i.i.i.i.i:                             ; preds = %while.body.i.i.i.i.i, %while.body.i.preheader.i.i.i.i
  %n.addr.03.i.i.i.i.i = phi i64 [ %dec.i.i.i.i.i, %while.body.i.i.i.i.i ], [ %0, %while.body.i.preheader.i.i.i.i ]
  %storemerge2.i.i.i.i.i = phi ptr [ %incdec.ptr.i.i.i.i.i, %while.body.i.i.i.i.i ], [ %this.val.i.i.i.i, %while.body.i.preheader.i.i.i.i ]
  %dec.i.i.i.i.i = add i64 %n.addr.03.i.i.i.i.i, -1
  tail call void @_ZNSt7__cxx1112basic_stringIcSt11char_traitsIcESaIcEED1Ev(ptr noundef nonnull align 8 dereferenceable(32) %storemerge2.i.i.i.i.i) #23
  %incdec.ptr.i.i.i.i.i = getelementptr inbounds i8, ptr %storemerge2.i.i.i.i.i, i64 40
  %tobool.not.i.i.i.i.i = icmp eq i64 %dec.i.i.i.i.i, 0
  br i1 %tobool.not.i.i.i.i.i, label %invoke.cont.i.i.i.i, label %while.body.i.i.i.i.i, !llvm.loop !301

invoke.cont.i.i.i.i:                              ; preds = %while.body.i.i.i.i.i, %entry
  %1 = getelementptr inbounds i8, ptr %this, i64 16
  %this.val2.i.i.i.i = load i64, ptr %1, align 8
  %tobool.not.i3.i.i.i.i = icmp eq i64 %this.val2.i.i.i.i, 0
  br i1 %tobool.not.i3.i.i.i.i, label %_ZN5boost9container8flat_mapINSt7__cxx1112basic_stringIcSt11char_traitsIcESaIcEEEPKN18OpenImageIO_v2_6_012_GLOBAL__N_16XMPtagESt4lessIS7_EvED2Ev.exit, label %if.then.i.i.i.i.i

if.then.i.i.i.i.i:                                ; preds = %invoke.cont.i.i.i.i
  %this.val1.i.i.i.i = load ptr, ptr %this, align 8
  tail call void @_ZdlPv(ptr noundef %this.val1.i.i.i.i) #23
  br label %_ZN5boost9container8flat_mapINSt7__cxx1112basic_stringIcSt11char_traitsIcESaIcEEEPKN18OpenImageIO_v2_6_012_GLOBAL__N_16XMPtagESt4lessIS7_EvED2Ev.exit

_ZN5boost9container8flat_mapINSt7__cxx1112basic_stringIcSt11char_traitsIcESaIcEEEPKN18OpenImageIO_v2_6_012_GLOBAL__N_16XMPtagESt4lessIS7_EvED2Ev.exit: ; preds = %invoke.cont.i.i.i.i, %if.then.i.i.i.i.i
  ret void
}